; Function Attrs: nounwind uwtable
define ptr @initialize_Lean_Compiler_NoncomputableAttr(i8 noundef zeroext %0, ptr noundef readnone captures(none) %1) local_unnamed_addr #0 {
  %.b9 = load i1, ptr @_G_initialized, align 1
  br i1 %.b9, label %3, label %7

3:                                                ; preds = %2
  tail call void @lean_inc_heartbeat() #3
  %4 = tail call noalias ptr @mi_malloc_small(i64 noundef 24) #3
  %5 = icmp eq ptr %4, null
  br i1 %5, label %6, label %.sink.split

6:                                                ; preds = %3
  tail call void @lean_internal_panic_out_of_memory() #4
  unreachable

7:                                                ; preds = %2
  store i1 true, ptr @_G_initialized, align 1
  %8 = tail call ptr @initialize_Lean_EnvExtension(i8 noundef zeroext %0, ptr noundef nonnull inttoptr (i64 1 to ptr)) #3
  %9 = getelementptr i8, ptr %8, i64 4
  %.val = load i32, ptr %9, align 4
  %.mask.i = and i32 %.val, -16777216
  %10 = icmp eq i32 %.mask.i, 16777216
  br i1 %10, label %43, label %11

11:                                               ; preds = %7
  %12 = load i32, ptr %8, align 4, !tbaa !8
  %13 = icmp sgt i32 %12, 1
  br i1 %13, label %14, label %16, !prof !11

14:                                               ; preds = %11
  %15 = add nsw i32 %12, -1
  store i32 %15, ptr %8, align 4, !tbaa !8
  br label %lean_dec_ref.exit

16:                                               ; preds = %11
  %.not.i = icmp eq i32 %12, 0
  br i1 %.not.i, label %lean_dec_ref.exit, label %17

17:                                               ; preds = %16
  tail call void @lean_dec_ref_cold(ptr noundef nonnull %8) #3
  br label %lean_dec_ref.exit

lean_dec_ref.exit:                                ; preds = %14, %16, %17
  %18 = tail call ptr @lean_mk_string_unchecked(ptr noundef nonnull @.str, i64 noundef 4, i64 noundef 4) #3
  store ptr %18, ptr @l_Lean_initFn____x40_Lean_Compiler_NoncomputableAttr___hyg_3____closed__1, align 8, !tbaa !4
  tail call void @lean_mark_persistent(ptr noundef %18) #3
  %19 = tail call ptr @lean_mk_string_unchecked(ptr noundef nonnull @.str.1, i64 noundef 16, i64 noundef 16) #3
  store ptr %19, ptr @l_Lean_initFn____x40_Lean_Compiler_NoncomputableAttr___hyg_3____closed__2, align 8, !tbaa !4
  tail call void @lean_mark_persistent(ptr noundef %19) #3
  %20 = load ptr, ptr @l_Lean_initFn____x40_Lean_Compiler_NoncomputableAttr___hyg_3____closed__1, align 8, !tbaa !4
  %21 = load ptr, ptr @l_Lean_initFn____x40_Lean_Compiler_NoncomputableAttr___hyg_3____closed__2, align 8, !tbaa !4
  %22 = tail call ptr @l_Lean_Name_mkStr2(ptr noundef %20, ptr noundef %21) #3
  store ptr %22, ptr @l_Lean_initFn____x40_Lean_Compiler_NoncomputableAttr___hyg_3____closed__3, align 8, !tbaa !4
  tail call void @lean_mark_persistent(ptr noundef %22) #3
  %.not = icmp eq i8 %0, 0
  br i1 %.not, label %lean_dec_ref.exit11, label %23

23:                                               ; preds = %lean_dec_ref.exit
  %24 = load ptr, ptr @l_Lean_initFn____x40_Lean_Compiler_NoncomputableAttr___hyg_3____closed__3, align 8, !tbaa !4
  %25 = tail call ptr @l_Lean_mkTagDeclarationExtension(ptr noundef %24, i8 noundef zeroext 2, ptr noundef nonnull inttoptr (i64 1 to ptr)) #3
  %26 = getelementptr i8, ptr %25, i64 4
  %.val12 = load i32, ptr %26, align 4
  %.mask.i14 = and i32 %.val12, -16777216
  %27 = icmp eq i32 %.mask.i14, 16777216
  br i1 %27, label %43, label %28

28:                                               ; preds = %23
  %29 = getelementptr i8, ptr %25, i64 8
  %.val13 = load ptr, ptr %29, align 8, !tbaa !4
  store ptr %.val13, ptr @l_Lean_noncomputableExt, align 8, !tbaa !4
  tail call void @lean_mark_persistent(ptr noundef %.val13) #3
  %30 = load i32, ptr %25, align 4, !tbaa !8
  %31 = icmp sgt i32 %30, 1
  br i1 %31, label %32, label %34, !prof !11

32:                                               ; preds = %28
  %33 = add nsw i32 %30, -1
  store i32 %33, ptr %25, align 4, !tbaa !8
  br label %lean_dec_ref.exit11

34:                                               ; preds = %28
  %.not.i10 = icmp eq i32 %30, 0
  br i1 %.not.i10, label %lean_dec_ref.exit11, label %35

35:                                               ; preds = %34
  tail call void @lean_dec_ref_cold(ptr noundef nonnull %25) #3
  br label %lean_dec_ref.exit11

lean_dec_ref.exit11:                              ; preds = %35, %34, %32, %lean_dec_ref.exit
  %36 = load ptr, ptr @l_Lean_noncomputableExt, align 8, !tbaa !4
  store ptr %36, ptr @l_Lean_addNoncomputable___closed__1, align 8, !tbaa !4
  tail call void @lean_mark_persistent(ptr noundef %36) #3
  tail call void @lean_inc_heartbeat() #3
  %37 = tail call noalias ptr @mi_malloc_small(i64 noundef 24) #3
  %38 = icmp eq ptr %37, null
  br i1 %38, label %39, label %.sink.split

39:                                               ; preds = %lean_dec_ref.exit11
  tail call void @lean_internal_panic_out_of_memory() #4
  unreachable

.sink.split:                                      ; preds = %lean_dec_ref.exit11, %3
  %.sink19 = phi ptr [ %4, %3 ], [ %37, %lean_dec_ref.exit11 ]
  %40 = getelementptr inbounds nuw i8, ptr %.sink19, i64 4
  store i32 1, ptr %.sink19, align 4, !tbaa !8
  store i32 131096, ptr %40, align 4
  %41 = getelementptr inbounds nuw i8, ptr %.sink19, i64 8
  store ptr inttoptr (i64 1 to ptr), ptr %41, align 8, !tbaa !4
  %42 = getelementptr inbounds nuw i8, ptr %.sink19, i64 16
  store ptr inttoptr (i64 1 to ptr), ptr %42, align 8, !tbaa !4
  br label %43

43:                                               ; preds = %.sink.split, %23, %7
  %.0 = phi ptr [ %8, %7 ], [ %25, %23 ], [ %.sink19, %.sink.split ]
  ret ptr %.0
}